; Function Attrs: mustprogress uwtable
define hidden void @_ZN4cvc58internal6theory5arith6linear17InferBoundsResultC2Ev(ptr noundef nonnull align 8 dereferenceable(96) initializes((0, 5)) %this) unnamed_addr #9 align 2 personality ptr @__gxx_personality_v0 {
entry:
  %ref.tmp = alloca %"class.cvc5::internal::Rational", align 8
  %d_value = getelementptr inbounds nuw i8, ptr %this, i64 8
  tail call void @llvm.memset.p0.i64(ptr noundef nonnull align 8 dereferenceable(5) %this, i8 0, i64 5, i1 false)
  call void @_ZN4cvc58internal8RationalC2Ei(ptr noundef nonnull align 8 dereferenceable(32) %ref.tmp, i32 noundef 0)
  invoke void @_ZN4cvc58internal13DeltaRationalC2ERKNS0_8RationalE(ptr noundef nonnull align 8 dereferenceable(64) %d_value, ptr noundef nonnull align 8 dereferenceable(32) %ref.tmp)
          to label %invoke.cont unwind label %lpad

invoke.cont:                                      ; preds = %entry
  invoke void @__gmpq_clear(ptr noundef nonnull align 8 dereferenceable(32) %ref.tmp)
          to label %_ZN4cvc58internal8RationalD2Ev.exit unwind label %terminate.lpad.i.i

terminate.lpad.i.i:                               ; preds = %invoke.cont
  %0 = landingpad { ptr, i32 }
          catch ptr null
  %1 = extractvalue { ptr, i32 } %0, 0
  call void @__clang_call_terminate(ptr %1) #26
  unreachable

_ZN4cvc58internal8RationalD2Ev.exit:              ; preds = %invoke.cont
  %d_term = getelementptr inbounds nuw i8, ptr %this, i64 72
  call void @llvm.experimental.noalias.scope.decl(metadata !18)
  %2 = load ptr, ptr @_ZN4cvc58internal12NodeTemplateILb1EE6s_nullE, align 8, !noalias !18
  store ptr %2, ptr %d_term, align 8, !alias.scope !18
  %bf.load.i.i.i = load i64, ptr %2, align 8, !noalias !18
  %bf.lshr.i.i.i = lshr i64 %bf.load.i.i.i, 40
  %3 = trunc nuw nsw i64 %bf.lshr.i.i.i to i32
  %bf.cast.i.i.i = and i32 %3, 1048575
  %cmp.i.i.i = icmp samesign ult i32 %bf.cast.i.i.i, 1048574
  br i1 %cmp.i.i.i, label %if.then.i.i.i, label %if.else.i.i.i

if.then.i.i.i:                                    ; preds = %_ZN4cvc58internal8RationalD2Ev.exit
  %bf.value.i.i.i = add i64 %bf.load.i.i.i, 1099511627776
  %bf.shl.i.i.i = and i64 %bf.value.i.i.i, 1152920405095219200
  %bf.clear7.i.i.i = and i64 %bf.load.i.i.i, -1152920405095219201
  %bf.set.i.i.i = or disjoint i64 %bf.shl.i.i.i, %bf.clear7.i.i.i
  store i64 %bf.set.i.i.i, ptr %2, align 8, !noalias !18
  br label %invoke.cont3

if.else.i.i.i:                                    ; preds = %_ZN4cvc58internal8RationalD2Ev.exit
  %cmp12.i.i.i = icmp eq i32 %bf.cast.i.i.i, 1048574
  br i1 %cmp12.i.i.i, label %if.then13.i.i.i, label %invoke.cont3

if.then13.i.i.i:                                  ; preds = %if.else.i.i.i
  %bf.set23.i.i.i = or i64 %bf.load.i.i.i, 1152920405095219200
  store i64 %bf.set23.i.i.i, ptr %2, align 8, !noalias !18
  invoke void @_ZN4cvc58internal4expr9NodeValue20markRefCountMaxedOutEv(ptr noundef nonnull align 8 dereferenceable(16) %2)
          to label %invoke.cont3 unwind label %lpad2

invoke.cont3:                                     ; preds = %if.else.i.i.i, %if.then.i.i.i, %if.then13.i.i.i
  %d_upperBound = getelementptr inbounds nuw i8, ptr %this, i64 80
  store i8 1, ptr %d_upperBound, align 8
  %d_explanation = getelementptr inbounds nuw i8, ptr %this, i64 88
  call void @llvm.experimental.noalias.scope.decl(metadata !21)
  %4 = load ptr, ptr @_ZN4cvc58internal12NodeTemplateILb1EE6s_nullE, align 8, !noalias !21
  store ptr %4, ptr %d_explanation, align 8, !alias.scope !21
  %bf.load.i.i.i3 = load i64, ptr %4, align 8, !noalias !21
  %bf.lshr.i.i.i4 = lshr i64 %bf.load.i.i.i3, 40
  %5 = trunc nuw nsw i64 %bf.lshr.i.i.i4 to i32
  %bf.cast.i.i.i5 = and i32 %5, 1048575
  %cmp.i.i.i6 = icmp samesign ult i32 %bf.cast.i.i.i5, 1048574
  br i1 %cmp.i.i.i6, label %if.then.i.i.i11, label %if.else.i.i.i7

if.then.i.i.i11:                                  ; preds = %invoke.cont3
  %bf.value.i.i.i12 = add i64 %bf.load.i.i.i3, 1099511627776
  %bf.shl.i.i.i13 = and i64 %bf.value.i.i.i12, 1152920405095219200
  %bf.clear7.i.i.i14 = and i64 %bf.load.i.i.i3, -1152920405095219201
  %bf.set.i.i.i15 = or disjoint i64 %bf.shl.i.i.i13, %bf.clear7.i.i.i14
  store i64 %bf.set.i.i.i15, ptr %4, align 8, !noalias !21
  br label %invoke.cont5

if.else.i.i.i7:                                   ; preds = %invoke.cont3
  %cmp12.i.i.i8 = icmp eq i32 %bf.cast.i.i.i5, 1048574
  br i1 %cmp12.i.i.i8, label %if.then13.i.i.i9, label %invoke.cont5

if.then13.i.i.i9:                                 ; preds = %if.else.i.i.i7
  %bf.set23.i.i.i10 = or i64 %bf.load.i.i.i3, 1152920405095219200
  store i64 %bf.set23.i.i.i10, ptr %4, align 8, !noalias !21
  invoke void @_ZN4cvc58internal4expr9NodeValue20markRefCountMaxedOutEv(ptr noundef nonnull align 8 dereferenceable(16) %4)
          to label %invoke.cont5 unwind label %lpad4

invoke.cont5:                                     ; preds = %if.else.i.i.i7, %if.then.i.i.i11, %if.then13.i.i.i9
  ret void

lpad:                                             ; preds = %entry
  %6 = landingpad { ptr, i32 }
          cleanup
  invoke void @__gmpq_clear(ptr noundef nonnull align 8 dereferenceable(32) %ref.tmp)
          to label %eh.resume unwind label %terminate.lpad.i.i18

terminate.lpad.i.i18:                             ; preds = %lpad
  %7 = landingpad { ptr, i32 }
          catch ptr null
  %8 = extractvalue { ptr, i32 } %7, 0
  call void @__clang_call_terminate(ptr %8) #26
  unreachable

lpad2:                                            ; preds = %if.then13.i.i.i
  %9 = landingpad { ptr, i32 }
          cleanup
  br label %ehcleanup

lpad4:                                            ; preds = %if.then13.i.i.i9
  %10 = landingpad { ptr, i32 }
          cleanup
  call void @_ZN4cvc58internal12NodeTemplateILb1EED2Ev(ptr noundef nonnull align 8 dereferenceable(8) %d_term) #27
  br label %ehcleanup

ehcleanup:                                        ; preds = %lpad4, %lpad2
  %.pn = phi { ptr, i32 } [ %10, %lpad4 ], [ %9, %lpad2 ]
  call void @_ZN4cvc58internal13DeltaRationalD2Ev(ptr noundef nonnull align 8 dereferenceable(64) %d_value) #27
  br label %eh.resume

eh.resume:                                        ; preds = %lpad, %ehcleanup
  %.pn.pn = phi { ptr, i32 } [ %.pn, %ehcleanup ], [ %6, %lpad ]
  resume { ptr, i32 } %.pn.pn
}